(dp1
S'output'
p2
S''
sS'layer'
p3
S'Framework'
p4
sS'code'
p5
S''
sS'snapshot'
p6
(dp7
S'exception'
p8
(dp9
S'__getslice__'
p10
S"<method-wrapper '__getslice__' of exceptions.IOError object>"
p11
sS'__str__'
p12
S"<method-wrapper '__str__' of exceptions.IOError object>"
p13
sS'__reduce__'
p14
S'<built-in method __reduce__ of exceptions.IOError object>'
p15
sS'__dict__'
p16
S'{}'
p17
sS'__sizeof__'
p18
S'<built-in method __sizeof__ of exceptions.IOError object>'
p19
sS'__init__'
p20
S"<method-wrapper '__init__' of exceptions.IOError object>"
p21
sS'__setattr__'
p22
S"<method-wrapper '__setattr__' of exceptions.IOError object>"
p23
sS'__reduce_ex__'
p24
S'<built-in method __reduce_ex__ of exceptions.IOError object>'
p25
sS'__new__'
p26
S'<built-in method __new__ of type object>'
p27
sS'errno'
p28
S'13'
p29
sS'__format__'
p30
S'<built-in method __format__ of exceptions.IOError object>'
p31
sS'__class__'
p32
S"<type 'exceptions.IOError'>"
p33
sS'filename'
p34
S"'/home/matthew/devel/music/applications/Music/sessions/127.0.0.1-1e5387f7-7ea7-47e0-ba01-a964badfe120'"
p35
sS'__doc__'
p36
S"'I/O operation failed.'"
p37
sS'__getitem__'
p38
S"<method-wrapper '__getitem__' of exceptions.IOError object>"
p39
sS'__setstate__'
p40
S'<built-in method __setstate__ of exceptions.IOError object>'
p41
sS'__getattribute__'
p42
S"<method-wrapper '__getattribute__' of exceptions.IOError object>"
p43
sS'args'
p44
S"(13, 'Permission denied')"
p45
sS'__subclasshook__'
p46
S'<built-in method __subclasshook__ of type object>'
p47
sS'__unicode__'
p48
S'<built-in method __unicode__ of exceptions.IOError object>'
p49
sS'strerror'
p50
S"'Permission denied'"
p51
sS'__delattr__'
p52
S"<method-wrapper '__delattr__' of exceptions.IOError object>"
p53
sS'__repr__'
p54
S"<method-wrapper '__repr__' of exceptions.IOError object>"
p55
sS'__hash__'
p56
S"<method-wrapper '__hash__' of exceptions.IOError object>"
p57
ssS'evalue'
p58
S"[Errno 13] Permission denied: '/home/matthew/devel/music/applications/Music/sessions/127.0.0.1-1e5387f7-7ea7-47e0-ba01-a964badfe120'"
p59
sS'request'
p60
cgluon.html
XML_unpickle
p61
(S'sy`\x00\x00<div><table><tr><td style="font-weight:bold;vertical-align:top">ajax</td><td valign="top">:</td><td><div>False</div></td></tr><tr><td style="font-weight:bold;vertical-align:top">application</td><td valign="top">:</td><td><div>Music</div></td></tr><tr><td style="font-weight:bold;vertical-align:top">args</td><td valign="top">:</td><td><div><table><tr><td><div>db</div></td></tr></table></div></td></tr><tr><td style="font-weight:bold;vertical-align:top">body</td><td valign="top">:</td><td><div>&lt;cStringIO.StringO object at 0x7fe85c2f8768&gt;</div></td></tr><tr><td style="font-weight:bold;vertical-align:top">cid</td><td valign="top">:</td><td><div>None</div></td></tr><tr><td style="font-weight:bold;vertical-align:top">client</td><td valign="top">:</td><td><div>127.0.0.1</div></td></tr><tr><td style="font-weight:bold;vertical-align:top">controller</td><td valign="top">:</td><td><div>appadmin</div></td></tr><tr><td style="font-weight:bold;vertical-align:top">cookies</td><td valign="top">:</td><td><div><table><tr><td style="font-weight:bold;vertical-align:top">session_data_examples</td><td valign="top">:</td><td><div>c03db69f6987586800bec2c68c8da621:z3HKmT54pdnofHgnYA0RQq0C7rUJRUsLS5b3Z8OuU4QSXP-aGMRBcEimwJL68twefnFJC6M1sIFOnOaeuIq4Ep7y7M3Lx7OxkLJPgfWQNmPEZbsXbSvTFg4CKlESJm6JMlZw1xyQAlnMNg9WBY205VoIYhqQxk-gJ8okmuTnPxSmjoNOuMB6pSuSYr482FenKWo2v1GZTKMhY_64ESbV1xMGLhElCmbEayi_KHgRmCBMB0vNIQ4XbtEj2tEPPtPHlZkHLl_K0kEUekPhm9qoi7H2v9GHPiQcc18JKdxXqD589fAw07QqGpiIIh9SxOQH<table><tr><td style="font-weight:bold;vertical-align:top">comment</td><td valign="top">:</td><td><div></div></td></tr><tr><td style="font-weight:bold;vertical-align:top">domain</td><td valign="top">:</td><td><div></div></td></tr><tr><td style="font-weight:bold;vertical-align:top">expires</td><td valign="top">:</td><td><div></div></td></tr><tr><td style="font-weight:bold;vertical-align:top">httponly</td><td valign="top">:</td><td><div></div></td></tr><tr><td style="font-weight:bold;vertical-align:top">max-age</td><td valign="top">:</td><td><div></div></td></tr><tr><td style="font-weight:bold;vertical-align:top">path</td><td valign="top">:</td><td><div></div></td></tr><tr><td style="font-weight:bold;vertical-align:top">secure</td><td valign="top">:</td><td><div></div></td></tr><tr><td style="font-weight:bold;vertical-align:top">version</td><td valign="top">:</td><td><div></div></td></tr></table></div></td></tr><tr><td style="font-weight:bold;vertical-align:top">session_id_admin</td><td valign="top">:</td><td><div>127.0.0.1-c95f9017-9d53-4d9a-808c-2be66478b9d5<table><tr><td style="font-weight:bold;vertical-align:top">comment</td><td valign="top">:</td><td><div></div></td></tr><tr><td style="font-weight:bold;vertical-align:top">domain</td><td valign="top">:</td><td><div></div></td></tr><tr><td style="font-weight:bold;vertical-align:top">expires</td><td valign="top">:</td><td><div></div></td></tr><tr><td style="font-weight:bold;vertical-align:top">httponly</td><td valign="top">:</td><td><div></div></td></tr><tr><td style="font-weight:bold;vertical-align:top">max-age</td><td valign="top">:</td><td><div></div></td></tr><tr><td style="font-weight:bold;vertical-align:top">path</td><td valign="top">:</td><td><div></div></td></tr><tr><td style="font-weight:bold;vertical-align:top">secure</td><td valign="top">:</td><td><div></div></td></tr><tr><td style="font-weight:bold;vertical-align:top">version</td><td valign="top">:</td><td><div></div></td></tr></table></div></td></tr><tr><td style="font-weight:bold;vertical-align:top">session_id_music</td><td valign="top">:</td><td><div>127.0.0.1-1e5387f7-7ea7-47e0-ba01-a964badfe120<table><tr><td style="font-weight:bold;vertical-align:top">comment</td><td valign="top">:</td><td><div></div></td></tr><tr><td style="font-weight:bold;vertical-align:top">domain</td><td valign="top">:</td><td><div></div></td></tr><tr><td style="font-weight:bold;vertical-align:top">expires</td><td valign="top">:</td><td><div></div></td></tr><tr><td style="font-weight:bold;vertical-align:top">httponly</td><td valign="top">:</td><td><div></div></td></tr><tr><td style="font-weight:bold;vertical-align:top">max-age</td><td valign="top">:</td><td><div></div></td></tr><tr><td style="font-weight:bold;vertical-align:top">path</td><td valign="top">:</td><td><div></div></td></tr><tr><td style="font-weight:bold;vertical-align:top">secure</td><td valign="top">:</td><td><div></div></td></tr><tr><td style="font-weight:bold;vertical-align:top">version</td><td valign="top">:</td><td><div></div></td></tr></table></div></td></tr><tr><td style="font-weight:bold;vertical-align:top">session_id_welcome</td><td valign="top">:</td><td><div>127.0.0.1-34559d4e-22bc-45cf-a997-44e7e9d3a7ef<table><tr><td style="font-weight:bold;vertical-align:top">comment</td><td valign="top">:</td><td><div></div></td></tr><tr><td style="font-weight:bold;vertical-align:top">domain</td><td valign="top">:</td><td><div></div></td></tr><tr><td style="font-weight:bold;vertical-align:top">expires</td><td valign="top">:</td><td><div></div></td></tr><tr><td style="font-weight:bold;vertical-align:top">httponly</td><td valign="top">:</td><td><div></div></td></tr><tr><td style="font-weight:bold;vertical-align:top">max-age</td><td valign="top">:</td><td><div></div></td></tr><tr><td style="font-weight:bold;vertical-align:top">path</td><td valign="top">:</td><td><div></div></td></tr><tr><td style="font-weight:bold;vertical-align:top">secure</td><td valign="top">:</td><td><div></div></td></tr><tr><td style="font-weight:bold;vertical-align:top">version</td><td valign="top">:</td><td><div></div></td></tr></table></div></td></tr></table></div></td></tr><tr><td style="font-weight:bold;vertical-align:top">env</td><td valign="top">:</td><td><div><table><tr><td style="font-weight:bold;vertical-align:top">app_folders</td><td valign="top">:</td><td><div>set([&#x27;/home/matthew/devel/music/applications/admin/&#x27;, &#x27;/home/matthew/devel/music/applications/Music/&#x27;])</div></td></tr><tr><td style="font-weight:bold;vertical-align:top">applications_parent</td><td valign="top">:</td><td><div>/home/matthew/devel/music</div></td></tr><tr><td style="font-weight:bold;vertical-align:top">cmd_args</td><td valign="top">:</td><td><div><table></table></div></td></tr><tr><td style="font-weight:bold;vertical-align:top">cmd_options</td><td valign="top">:</td><td><div>&lt;Values at 0x1ec67a0: {&#x27;verbose&#x27;: False, &#x27;ip&#x27;: &#x27;127.0.0.1&#x27;, &#x27;with_scheduler&#x27;: False, &#x27;ips&#x27;: [&#x27;127.0.1.1&#x27;], &#x27;shutdown_timeout&#x27;: 5, &#x27;taskbar&#x27;: False, &#x27;with_coverage&#x27;: False, &#x27;port&#x27;: 8000, &#x27;maxthreads&#x27;: None, &#x27;softcron&#x27;: False, &#x27;server_name&#x27;: &#x27;matthew.laptop&#x27;, &#x27;bpython&#x27;: False, &#x27;nogui&#x27;: False, &#x27;pid_filename&#x27;: &#x27;httpserver.pid&#x27;, &#x27;extcron&#x27;: False, &#x27;runcron&#x27;: False, &#x27;run_system_tests&#x27;: False, &#x27;test&#x27;: None, &#x27;folder&#x27;: &#x27;/home/matthew/devel/music&#x27;, &#x27;config&#x27;: &#x27;&#x27;, &#x27;minthreads&#x27;: None, &#x27;winservice&#x27;: &#x27;&#x27;, &#x27;shell&#x27;: None, &#x27;run&#x27;: &#x27;&#x27;, &#x27;log_filename&#x27;: &#x27;httpserver.log&#x27;, &#x27;debuglevel&#x27;: 30, &#x27;args&#x27;: [&#x27;&#x27;], &#x27;socket_timeout&#x27;: 5, &#x27;ssl_ca_certificate&#x27;: None, &#x27;scheduler&#x27;: None, &#x27;profiler_filename&#x27;: None, &#x27;ssl_private_key&#x27;: &#x27;&#x27;, &#x27;scheduler_groups&#x27;: None, &#x27;password&#x27;: &#x27;&lt;ask&gt;&#x27;, &#x27;request_queue_size&#x27;: 5, &#x27;ssl_certificate&#x27;: &#x27;&#x27;, &#x27;cronjob&#x27;: False, &#x27;numthreads&#x27;: None, &#x27;quiet&#x27;: False, &#x27;interfaces&#x27;: None, &#x27;import_models&#x27;: False, &#x27;timeout&#x27;: 10, &#x27;plain&#x27;: False, &#x27;nobanner&#x27;: False}&gt;</div></td></tr><tr><td style="font-weight:bold;vertical-align:top">db_sessions</td><td valign="top">:</td><td><div>set([])</div></td></tr><tr><td style="font-weight:bold;vertical-align:top">debugging</td><td valign="top">:</td><td><div>True</div></td></tr><tr><td style="font-weight:bold;vertical-align:top">gluon_parent</td><td valign="top">:</td><td><div>/home/matthew/devel/music</div></td></tr><tr><td style="font-weight:bold;vertical-align:top">http_accept</td><td valign="top">:</td><td><div>text/html,application/xhtml+xml,application/xml;q=0.9,*/*;q=0.8</div></td></tr><tr><td style="font-weight:bold;vertical-align:top">http_accept_charset</td><td valign="top">:</td><td><div>ISO-8859-1,utf-8;q=0.7,*;q=0.3</div></td></tr><tr><td style="font-weight:bold;vertical-align:top">http_accept_encoding</td><td valign="top">:</td><td><div>gzip,deflate,sdch</div></td></tr><tr><td style="font-weight:bold;vertical-align:top">http_accept_language</td><td valign="top">:</td><td><div>en-US,en;q=0.8,fr;q=0.6</div></td></tr><tr><td style="font-weight:bold;vertical-align:top">http_cache_control</td><td valign="top">:</td><td><div>max-age=0</div></td></tr><tr><td style="font-weight:bold;vertical-align:top">http_connection</td><td valign="top">:</td><td><div>keep-alive</div></td></tr><tr><td style="font-weight:bold;vertical-align:top">http_cookie</td><td valign="top">:</td><td><div>session_data_examples=&quot;c03db69f6987586800bec2c68c8da621:z3HKmT54pdnofHgnYA0RQq0C7rUJRUsLS5b3Z8OuU4QSXP-aGMRBcEimwJL68twefnFJC6M1sIFOnOaeuIq4Ep7y7M3Lx7OxkLJPgfWQNmPEZbsXbSvTFg4CKlESJm6JMlZw1xyQAlnMNg9WBY205VoIYhqQxk-gJ8okmuTnPxSmjoNOuMB6pSuSYr482FenKWo2v1GZTKMhY_64ESbV1xMGLhElCmbEayi_KHgRmCBMB0vNIQ4XbtEj2tEPPtPHlZkHLl_K0kEUekPhm9qoi7H2v9GHPiQcc18JKdxXqD589fAw07QqGpiIIh9SxOQH&quot;; session_id_welcome=127.0.0.1-34559d4e-22bc-45cf-a997-44e7e9d3a7ef; session_id_music=127.0.0.1-1e5387f7-7ea7-47e0-ba01-a964badfe120; session_id_admin=127.0.0.1-c95f9017-9d53-4d9a-808c-2be66478b9d5</div></td></tr><tr><td style="font-weight:bold;vertical-align:top">http_host</td><td valign="top">:</td><td><div>localhost:8000</div></td></tr><tr><td style="font-weight:bold;vertical-align:top">http_referer</td><td valign="top">:</td><td><div>http://localhost:8000/admin?send=%2Fappadmin%2Fselect%2Fdb%3Fquery%3Ddb.song.id%253E0</div></td></tr><tr><td style="font-weight:bold;vertical-align:top">http_user_agent</td><td valign="top">:</td><td><div>Mozilla/5.0 (X11; Linux x86_64) AppleWebKit/537.31 (KHTML, like Gecko) Chrome/26.0.1410.43 Safari/537.31</div></td></tr><tr><td style="font-weight:bold;vertical-align:top">is_jython</td><td valign="top">:</td><td><div>False</div></td></tr><tr><td style="font-weight:bold;vertical-align:top">is_pypy</td><td valign="top">:</td><td><div>False</div></td></tr><tr><td style="font-weight:bold;vertical-align:top">local_hosts</td><td valign="top">:</td><td><div><table><tr><td><div>matthew.laptop</div></td></tr><tr><td><div>::1</div></td></tr><tr><td><div>127.0.1.1</div></td></tr><tr><td><div>::ffff:127.0.0.1</div></td></tr><tr><td><div>127.0.0.1</div></td></tr></table></div></td></tr><tr><td style="font-weight:bold;vertical-align:top">path_info</td><td valign="top">:</td><td><div>/appadmin/select/db</div></td></tr><tr><td style="font-weight:bold;vertical-align:top">query_string</td><td valign="top">:</td><td><div>query=db.song.id%3E0</div></td></tr><tr><td style="font-weight:bold;vertical-align:top">remote_addr</td><td valign="top">:</td><td><div>127.0.0.1</div></td></tr><tr><td style="font-weight:bold;vertical-align:top">remote_port</td><td valign="top">:</td><td><div>40730</div></td></tr><tr><td style="font-weight:bold;vertical-align:top">request_method</td><td valign="top">:</td><td><div>GET</div></td></tr><tr><td style="font-weight:bold;vertical-align:top">request_uri</td><td valign="top">:</td><td><div>/Music/appadmin/select/db?query=db.song.id%3E0</div></td></tr><tr><td style="font-weight:bold;vertical-align:top">script_name</td><td valign="top">:</td><td><div></div></td></tr><tr><td style="font-weight:bold;vertical-align:top">server_name</td><td valign="top">:</td><td><div>matthew.laptop</div></td></tr><tr><td style="font-weight:bold;vertical-align:top">server_port</td><td valign="top">:</td><td><div>8000</div></td></tr><tr><td style="font-weight:bold;vertical-align:top">server_protocol</td><td valign="top">:</td><td><div>HTTP/1.1</div></td></tr><tr><td style="font-weight:bold;vertical-align:top">server_software</td><td valign="top">:</td><td><div>Rocket 1.2.6</div></td></tr><tr><td style="font-weight:bold;vertical-align:top">web2py_original_uri</td><td valign="top">:</td><td><div>/appadmin/select/db?query=db.song.id%3E0</div></td></tr><tr><td style="font-weight:bold;vertical-align:top">web2py_path</td><td valign="top">:</td><td><div>/home/matthew/devel/music</div></td></tr><tr><td style="font-weight:bold;vertical-align:top">web2py_version</td><td valign="top">:</td><td><div>2.4.7-stable+timestamp.2013.05.24.17.48.47</div></td></tr><tr><td style="font-weight:bold;vertical-align:top">wsgi_errors</td><td valign="top">:</td><td><div>&lt;open file &#x27;&lt;stderr&gt;&#x27;, mode &#x27;w&#x27; at 0x7fe88ff531e0&gt;</div></td></tr><tr><td style="font-weight:bold;vertical-align:top">wsgi_file_wrapper</td><td valign="top">:</td><td><div>&lt;class wsgiref.util.FileWrapper at 0x1e173f8&gt;</div></td></tr><tr><td style="font-weight:bold;vertical-align:top">wsgi_input</td><td valign="top">:</td><td><div>&lt;socket._fileobject object at 0x7fe8783b9c50&gt;</div></td></tr><tr><td style="font-weight:bold;vertical-align:top">wsgi_multiprocess</td><td valign="top">:</td><td><div>False</div></td></tr><tr><td style="font-weight:bold;vertical-align:top">wsgi_multithread</td><td valign="top">:</td><td><div>True</div></td></tr><tr><td style="font-weight:bold;vertical-align:top">wsgi_run_once</td><td valign="top">:</td><td><div>False</div></td></tr><tr><td style="font-weight:bold;vertical-align:top">wsgi_url_scheme</td><td valign="top">:</td><td><div>http</div></td></tr><tr><td style="font-weight:bold;vertical-align:top">wsgi_version</td><td valign="top">:</td><td><div><table><tr><td><div>1</div></td></tr><tr><td><div>0</div></td></tr></table></div></td></tr></table></div></td></tr><tr><td style="font-weight:bold;vertical-align:top">extension</td><td valign="top">:</td><td><div>html</div></td></tr><tr><td style="font-weight:bold;vertical-align:top">folder</td><td valign="top">:</td><td><div>/home/matthew/devel/music/applications/Music/</div></td></tr><tr><td style="font-weight:bold;vertical-align:top">function</td><td valign="top">:</td><td><div>select</div></td></tr><tr><td style="font-weight:bold;vertical-align:top">get_vars</td><td valign="top">:</td><td><div><table><tr><td style="font-weight:bold;vertical-align:top">query</td><td valign="top">:</td><td><div>db.song.id&gt;0</div></td></tr></table></div></td></tr><tr><td style="font-weight:bold;vertical-align:top">global_settings</td><td valign="top">:</td><td><div><table><tr><td style="font-weight:bold;vertical-align:top">app_folders</td><td valign="top">:</td><td><div>set([&#x27;/home/matthew/devel/music/applications/admin/&#x27;, &#x27;/home/matthew/devel/music/applications/Music/&#x27;])</div></td></tr><tr><td style="font-weight:bold;vertical-align:top">applications_parent</td><td valign="top">:</td><td><div>/home/matthew/devel/music</div></td></tr><tr><td style="font-weight:bold;vertical-align:top">cmd_args</td><td valign="top">:</td><td><div><table></table></div></td></tr><tr><td style="font-weight:bold;vertical-align:top">cmd_options</td><td valign="top">:</td><td><div>&lt;Values at 0x1ec67a0: {&#x27;verbose&#x27;: False, &#x27;ip&#x27;: &#x27;127.0.0.1&#x27;, &#x27;with_scheduler&#x27;: False, &#x27;ips&#x27;: [&#x27;127.0.1.1&#x27;], &#x27;shutdown_timeout&#x27;: 5, &#x27;taskbar&#x27;: False, &#x27;with_coverage&#x27;: False, &#x27;port&#x27;: 8000, &#x27;maxthreads&#x27;: None, &#x27;softcron&#x27;: False, &#x27;server_name&#x27;: &#x27;matthew.laptop&#x27;, &#x27;bpython&#x27;: False, &#x27;nogui&#x27;: False, &#x27;pid_filename&#x27;: &#x27;httpserver.pid&#x27;, &#x27;extcron&#x27;: False, &#x27;runcron&#x27;: False, &#x27;run_system_tests&#x27;: False, &#x27;test&#x27;: None, &#x27;folder&#x27;: &#x27;/home/matthew/devel/music&#x27;, &#x27;config&#x27;: &#x27;&#x27;, &#x27;minthreads&#x27;: None, &#x27;winservice&#x27;: &#x27;&#x27;, &#x27;shell&#x27;: None, &#x27;run&#x27;: &#x27;&#x27;, &#x27;log_filename&#x27;: &#x27;httpserver.log&#x27;, &#x27;debuglevel&#x27;: 30, &#x27;args&#x27;: [&#x27;&#x27;], &#x27;socket_timeout&#x27;: 5, &#x27;ssl_ca_certificate&#x27;: None, &#x27;scheduler&#x27;: None, &#x27;profiler_filename&#x27;: None, &#x27;ssl_private_key&#x27;: &#x27;&#x27;, &#x27;scheduler_groups&#x27;: None, &#x27;password&#x27;: &#x27;&lt;ask&gt;&#x27;, &#x27;request_queue_size&#x27;: 5, &#x27;ssl_certificate&#x27;: &#x27;&#x27;, &#x27;cronjob&#x27;: False, &#x27;numthreads&#x27;: None, &#x27;quiet&#x27;: False, &#x27;interfaces&#x27;: None, &#x27;import_models&#x27;: False, &#x27;timeout&#x27;: 10, &#x27;plain&#x27;: False, &#x27;nobanner&#x27;: False}&gt;</div></td></tr><tr><td style="font-weight:bold;vertical-align:top">db_sessions</td><td valign="top">:</td><td><div>set([])</div></td></tr><tr><td style="font-weight:bold;vertical-align:top">debugging</td><td valign="top">:</td><td><div>True</div></td></tr><tr><td style="font-weight:bold;vertical-align:top">gluon_parent</td><td valign="top">:</td><td><div>/home/matthew/devel/music</div></td></tr><tr><td style="font-weight:bold;vertical-align:top">is_jython</td><td valign="top">:</td><td><div>False</div></td></tr><tr><td style="font-weight:bold;vertical-align:top">is_pypy</td><td valign="top">:</td><td><div>False</div></td></tr><tr><td style="font-weight:bold;vertical-align:top">local_hosts</td><td valign="top">:</td><td><div><table><tr><td><div>matthew.laptop</div></td></tr><tr><td><div>::1</div></td></tr><tr><td><div>127.0.1.1</div></td></tr><tr><td><div>::ffff:127.0.0.1</div></td></tr><tr><td><div>127.0.0.1</div></td></tr></table></div></td></tr><tr><td style="font-weight:bold;vertical-align:top">web2py_version</td><td valign="top">:</td><td><div>2.4.7-stable+timestamp.2013.05.24.17.48.47</div></td></tr></table></div></td></tr><tr><td style="font-weight:bold;vertical-align:top">is_https</td><td valign="top">:</td><td><div>False</div></td></tr><tr><td style="font-weight:bold;vertical-align:top">is_local</td><td valign="top">:</td><td><div>True</div></td></tr><tr><td style="font-weight:bold;vertical-align:top">is_restful</td><td valign="top">:</td><td><div>False</div></td></tr><tr><td style="font-weight:bold;vertical-align:top">now</td><td valign="top">:</td><td><div>datetime.datetime(2013, 5, 26, 8, 47, 56, 756007)</div></td></tr><tr><td style="font-weight:bold;vertical-align:top">post_vars</td><td valign="top">:</td><td><div><table></table></div></td></tr><tr><td style="font-weight:bold;vertical-align:top">url</td><td valign="top">:</td><td><div>/appadmin/select/db</div></td></tr><tr><td style="font-weight:bold;vertical-align:top">utcnow</td><td valign="top">:</td><td><div>datetime.datetime(2013, 5, 26, 15, 47, 56, 756054)</div></td></tr><tr><td style="font-weight:bold;vertical-align:top">uuid</td><td valign="top">:</td><td><div>Music/127.0.0.1.2013-05-26.08-47-56.f2e364d6-79c9-4178-8a7b-da955c3472ed</div></td></tr><tr><td style="font-weight:bold;vertical-align:top">vars</td><td valign="top">:</td><td><div><table><tr><td style="font-weight:bold;vertical-align:top">query</td><td valign="top">:</td><td><div>db.song.id&gt;0</div></td></tr></table></div></td></tr><tr><td style="font-weight:bold;vertical-align:top">wsgi</td><td valign="top">:</td><td><div><table><tr><td style="font-weight:bold;vertical-align:top">environ</td><td valign="top">:</td><td><div><table><tr><td style="font-weight:bold;vertical-align:top">HTTP_ACCEPT</td><td valign="top">:</td><td><div>text/html,application/xhtml+xml,application/xml;q=0.9,*/*;q=0.8</div></td></tr><tr><td style="font-weight:bold;vertical-align:top">HTTP_ACCEPT_CHARSET</td><td valign="top">:</td><td><div>ISO-8859-1,utf-8;q=0.7,*;q=0.3</div></td></tr><tr><td style="font-weight:bold;vertical-align:top">HTTP_ACCEPT_ENCODING</td><td valign="top">:</td><td><div>gzip,deflate,sdch</div></td></tr><tr><td style="font-weight:bold;vertical-align:top">HTTP_ACCEPT_LANGUAGE</td><td valign="top">:</td><td><div>en-US,en;q=0.8,fr;q=0.6</div></td></tr><tr><td style="font-weight:bold;vertical-align:top">HTTP_CACHE_CONTROL</td><td valign="top">:</td><td><div>max-age=0</div></td></tr><tr><td style="font-weight:bold;vertical-align:top">HTTP_CONNECTION</td><td valign="top">:</td><td><div>keep-alive</div></td></tr><tr><td style="font-weight:bold;vertical-align:top">HTTP_COOKIE</td><td valign="top">:</td><td><div>session_data_examples=&quot;c03db69f6987586800bec2c68c8da621:z3HKmT54pdnofHgnYA0RQq0C7rUJRUsLS5b3Z8OuU4QSXP-aGMRBcEimwJL68twefnFJC6M1sIFOnOaeuIq4Ep7y7M3Lx7OxkLJPgfWQNmPEZbsXbSvTFg4CKlESJm6JMlZw1xyQAlnMNg9WBY205VoIYhqQxk-gJ8okmuTnPxSmjoNOuMB6pSuSYr482FenKWo2v1GZTKMhY_64ESbV1xMGLhElCmbEayi_KHgRmCBMB0vNIQ4XbtEj2tEPPtPHlZkHLl_K0kEUekPhm9qoi7H2v9GHPiQcc18JKdxXqD589fAw07QqGpiIIh9SxOQH&quot;; session_id_welcome=127.0.0.1-34559d4e-22bc-45cf-a997-44e7e9d3a7ef; session_id_music=127.0.0.1-1e5387f7-7ea7-47e0-ba01-a964badfe120; session_id_admin=127.0.0.1-c95f9017-9d53-4d9a-808c-2be66478b9d5</div></td></tr><tr><td style="font-weight:bold;vertical-align:top">HTTP_HOST</td><td valign="top">:</td><td><div>localhost:8000</div></td></tr><tr><td style="font-weight:bold;vertical-align:top">HTTP_REFERER</td><td valign="top">:</td><td><div>http://localhost:8000/admin?send=%2Fappadmin%2Fselect%2Fdb%3Fquery%3Ddb.song.id%253E0</div></td></tr><tr><td style="font-weight:bold;vertical-align:top">HTTP_USER_AGENT</td><td valign="top">:</td><td><div>Mozilla/5.0 (X11; Linux x86_64) AppleWebKit/537.31 (KHTML, like Gecko) Chrome/26.0.1410.43 Safari/537.31</div></td></tr><tr><td style="font-weight:bold;vertical-align:top">PATH_INFO</td><td valign="top">:</td><td><div>/appadmin/select/db</div></td></tr><tr><td style="font-weight:bold;vertical-align:top">QUERY_STRING</td><td valign="top">:</td><td><div>query=db.song.id%3E0</div></td></tr><tr><td style="font-weight:bold;vertical-align:top">REMOTE_ADDR</td><td valign="top">:</td><td><div>127.0.0.1</div></td></tr><tr><td style="font-weight:bold;vertical-align:top">REMOTE_PORT</td><td valign="top">:</td><td><div>40730</div></td></tr><tr><td style="font-weight:bold;vertical-align:top">REQUEST_METHOD</td><td valign="top">:</td><td><div>GET</div></td></tr><tr><td style="font-weight:bold;vertical-align:top">REQUEST_URI</td><td valign="top">:</td><td><div>/Music/appadmin/select/db?query=db.song.id%3E0</div></td></tr><tr><td style="font-weight:bold;vertical-align:top">SCRIPT_NAME</td><td valign="top">:</td><td><div></div></td></tr><tr><td style="font-weight:bold;vertical-align:top">SERVER_NAME</td><td valign="top">:</td><td><div>matthew.laptop</div></td></tr><tr><td style="font-weight:bold;vertical-align:top">SERVER_PORT</td><td valign="top">:</td><td><div>8000</div></td></tr><tr><td style="font-weight:bold;vertical-align:top">SERVER_PROTOCOL</td><td valign="top">:</td><td><div>HTTP/1.1</div></td></tr><tr><td style="font-weight:bold;vertical-align:top">SERVER_SOFTWARE</td><td valign="top">:</td><td><div>Rocket 1.2.6</div></td></tr><tr><td style="font-weight:bold;vertical-align:top">WEB2PY_ORIGINAL_URI</td><td valign="top">:</td><td><div>/appadmin/select/db?query=db.song.id%3E0</div></td></tr><tr><td style="font-weight:bold;vertical-align:top">wsgi.errors</td><td valign="top">:</td><td><div>&lt;open file &#x27;&lt;stderr&gt;&#x27;, mode &#x27;w&#x27; at 0x7fe88ff531e0&gt;</div></td></tr><tr><td style="font-weight:bold;vertical-align:top">wsgi.file_wrapper</td><td valign="top">:</td><td><div>&lt;class wsgiref.util.FileWrapper at 0x1e173f8&gt;</div></td></tr><tr><td style="font-weight:bold;vertical-align:top">wsgi.input</td><td valign="top">:</td><td><div>&lt;cStringIO.StringO object at 0x7fe85c2f8768&gt;</div></td></tr><tr><td style="font-weight:bold;vertical-align:top">wsgi.multiprocess</td><td valign="top">:</td><td><div>False</div></td></tr><tr><td style="font-weight:bold;vertical-align:top">wsgi.multithread</td><td valign="top">:</td><td><div>True</div></td></tr><tr><td style="font-weight:bold;vertical-align:top">wsgi.run_once</td><td valign="top">:</td><td><div>False</div></td></tr><tr><td style="font-weight:bold;vertical-align:top">wsgi.url_scheme</td><td valign="top">:</td><td><div>http</div></td></tr><tr><td style="font-weight:bold;vertical-align:top">wsgi.version</td><td valign="top">:</td><td><div>1</div></td></tr></table></div></td></tr></table></div></td></tr></table></div>'
tRp62
sS'frames'
p63
(lp64
(dp65
S'file'
p66
S'/home/matthew/devel/music/gluon/main.py'
p67
sS'dump'
p68
(dp69
S'session._try_store_in_cookie_or_file'
p70
S"<bound method Session._try_store_in_cookie_or_fi...{'version': '26.0.1410.43', 'name': 'Chrome'}}}>>"
p71
sS'session'
p72
S"<Storage {'last_orderby': None, 'last_query': 'd... {'version': '26.0.1410.43', 'name': 'Chrome'}}}>"
p73
sS'request'
p74
S"<Storage {'function': 'select', 'body': <cString...applications/Music/', 'post_vars': <Storage {}>}>"
p75
sS'response'
p76
S"<Storage {'body': <cStringIO.StringO object at 0...da> at 0x7fe8783cb9b0>, 'view': 'appadmin.html'}>"
p77
ssS'lnum'
p78
I606
sS'lines'
p79
(dp80
I608
S'                if request.cid:'
p81
sI609
S'                    if response.flash:'
p82
sI610
S"                        http_response.headers['web2py-component-flash'] = \\"
p83
sI601
S'                # ##################################################'
p84
sI602
S'                # if session not in db try store session on filesystem'
p85
sI603
S'                # this must be done after trying to commit database!'
p86
sI604
S'                # ##################################################'
p87
sI605
S''
sI606
S'                session._try_store_in_cookie_or_file(request, response)'
p88
sI607
S''
ssS'call'
p89
S'(environ={\'HTTP_ACCEPT\': \'text/html,application/xhtml+xml,application/xml;q=0.9,*/*;q=0.8\', \'HTTP_ACCEPT_CHARSET\': \'ISO-8859-1,utf-8;q=0.7,*;q=0.3\', \'HTTP_ACCEPT_ENCODING\': \'gzip,deflate,sdch\', \'HTTP_ACCEPT_LANGUAGE\': \'en-US,en;q=0.8,fr;q=0.6\', \'HTTP_CACHE_CONTROL\': \'max-age=0\', \'HTTP_CONNECTION\': \'keep-alive\', \'HTTP_COOKIE\': \'session_data_examples="c03db69f6987586800bec2c68...in=127.0.0.1-c95f9017-9d53-4d9a-808c-2be66478b9d5\', \'HTTP_HOST\': \'localhost:8000\', \'HTTP_REFERER\': \'http://localhost:8000/admin?send=%2Fappadmin%2Fselect%2Fdb%3Fquery%3Ddb.song.id%253E0\', \'HTTP_USER_AGENT\': \'Mozilla/5.0 (X11; Linux x86_64) AppleWebKit/537....ML, like Gecko) Chrome/26.0.1410.43 Safari/537.31\', ...}, responder=<function responder2>)'
p90
sS'func'
p91
S'wsgibase'
p92
sa(dp93
g66
S'/home/matthew/devel/music/gluon/globals.py'
p94
sg68
(dp95
S'self._try_store_in_file'
p96
S"<bound method Session._try_store_in_file of <Sto...{'version': '26.0.1410.43', 'name': 'Chrome'}}}>>"
p97
sS'self'
p98
S"<Storage {'last_orderby': None, 'last_query': 'd... {'version': '26.0.1410.43', 'name': 'Chrome'}}}>"
p99
sS'request'
p100
S"<Storage {'function': 'select', 'body': <cString...applications/Music/', 'post_vars': <Storage {}>}>"
p101
sS'response'
p102
S"<Storage {'body': <cStringIO.StringO object at 0...da> at 0x7fe8783cb9b0>, 'view': 'appadmin.html'}>"
p103
ssg78
I757
sg79
(dp104
I752
S'        return True'
p105
sI753
S''
sI754
S'    def _try_store_in_cookie_or_file(self, request, response):'
p106
sI755
S'        return \\'
p107
sI756
S'            self._try_store_in_cookie(request, response) or \\'
p108
sI757
S'            self._try_store_in_file(request, response)'
p109
sI758
S''
sI759
S'    def _try_store_in_file(self, request, response):'
p110
sI760
S"        if response.session_storage_type != 'file':"
p111
sI761
S'            return False'
p112
ssg89
S"(self=<Storage {'last_orderby': None, 'last_query': 'd... {'version': '26.0.1410.43', 'name': 'Chrome'}}}>, request=<Storage {'function': 'select', 'body': <cString...applications/Music/', 'post_vars': <Storage {}>}>, response=<Storage {'body': <cStringIO.StringO object at 0...da> at 0x7fe8783cb9b0>, 'view': 'appadmin.html'}>)"
p113
sg91
S'_try_store_in_cookie_or_file'
p114
sa(dp115
g66
S'/home/matthew/devel/music/gluon/globals.py'
p116
sg68
(dp117
S'response.session_filename'
p118
S"'/home/matthew/devel/music/applications/Music/sessions/127.0.0.1-1e5387f7-7ea7-47e0-ba01-a964badfe120'"
p119
sS'builtinopen'
p120
S'<built-in function open>'
p121
sS'response'
p122
S"<Storage {'body': <cStringIO.StringO object at 0...da> at 0x7fe8783cb9b0>, 'view': 'appadmin.html'}>"
p123
sS'response.session_file'
p124
S'None'
p125
ssg78
I770
sg79
(dp126
I768
S'                if not os.path.exists(session_folder):'
p127
sI769
S'                    os.mkdir(session_folder)'
p128
sI770
S"                response.session_file = open(response.session_filename, 'wb')"
p129
sI771
S'                portalocker.lock(response.session_file, portalocker.LOCK_EX)'
p130
sI772
S'                response.session_locked = True'
p131
sI773
S''
sI774
S'            if response.session_file:'
p132
sI765
S'            if response.session_new or not response.session_file:'
p133
sI766
S'                # Tests if the session sub-folder exists, if not, create it'
p134
sI767
S'                session_folder = os.path.dirname(response.session_filename)'
p135
ssg89
S"(self=<Storage {'last_orderby': None, 'last_query': 'd... {'version': '26.0.1410.43', 'name': 'Chrome'}}}>, request=<Storage {'function': 'select', 'body': <cString...applications/Music/', 'post_vars': <Storage {}>}>, response=<Storage {'body': <cStringIO.StringO object at 0...da> at 0x7fe8783cb9b0>, 'view': 'appadmin.html'}>)"
p136
sg91
S'_try_store_in_file'
p137
sasS'pyver'
p138
S'Python 2.7.5: /usr/bin/python (prefix: /usr)'
p139
sS'session'
p140
g61
(S's\x15\x01\x00\x00<div><table><tr><td style="font-weight:bold;vertical-align:top">last_orderby</td><td valign="top">:</td><td><div>None</div></td></tr><tr><td style="font-weight:bold;vertical-align:top">last_query</td><td valign="top">:</td><td><div>db.song.id&gt;0</div></td></tr></table></div>'
tRp141
sS'etype'
p142
S"<type 'exceptions.IOError'>"
p143
sS'date'
p144
S'Sun May 26 08:47:58 2013'
p145
sS'response'
p146
g61
(S's\xb4\x1b\x00\x00<div><table><tr><td style="font-weight:bold;vertical-align:top">body</td><td valign="top">:</td><td><div>&lt;cStringIO.StringO object at 0x7fe8702a3998&gt;</div></td></tr><tr><td style="font-weight:bold;vertical-align:top">cookies</td><td valign="top">:</td><td><div><table><tr><td style="font-weight:bold;vertical-align:top">session_id_music</td><td valign="top">:</td><td><div>127.0.0.1-1e5387f7-7ea7-47e0-ba01-a964badfe120<table><tr><td style="font-weight:bold;vertical-align:top">comment</td><td valign="top">:</td><td><div></div></td></tr><tr><td style="font-weight:bold;vertical-align:top">domain</td><td valign="top">:</td><td><div></div></td></tr><tr><td style="font-weight:bold;vertical-align:top">expires</td><td valign="top">:</td><td><div></div></td></tr><tr><td style="font-weight:bold;vertical-align:top">httponly</td><td valign="top">:</td><td><div></div></td></tr><tr><td style="font-weight:bold;vertical-align:top">max-age</td><td valign="top">:</td><td><div></div></td></tr><tr><td style="font-weight:bold;vertical-align:top">path</td><td valign="top">:</td><td><div>/</div></td></tr><tr><td style="font-weight:bold;vertical-align:top">secure</td><td valign="top">:</td><td><div></div></td></tr><tr><td style="font-weight:bold;vertical-align:top">version</td><td valign="top">:</td><td><div></div></td></tr></table></div></td></tr></table></div></td></tr><tr><td style="font-weight:bold;vertical-align:top">delimiters</td><td valign="top">:</td><td><div><table><tr><td><div>{{</div></td></tr><tr><td><div>}}</div></td></tr></table></div></td></tr><tr><td style="font-weight:bold;vertical-align:top">files</td><td valign="top">:</td><td><div><table><tr><td><div>/Music/static/js/jquery.js</div></td></tr><tr><td><div>/Music/static/css/calendar.css</div></td></tr><tr><td><div>/Music/static/js/calendar.js</div></td></tr><tr><td><div>/Music/static/js/web2py.js</div></td></tr><tr><td><div>/Music/static/css/web2py.css</div></td></tr><tr><td><div>/Music/static/css/bootstrap.min.css</div></td></tr><tr><td><div>/Music/static/css/bootstrap-responsive.min.css</div></td></tr><tr><td><div>/Music/static/css/web2py_bootstrap.css</div></td></tr></table></div></td></tr><tr><td style="font-weight:bold;vertical-align:top">flash</td><td valign="top">:</td><td><div></div></td></tr><tr><td style="font-weight:bold;vertical-align:top">generic_patterns</td><td valign="top">:</td><td><div><table></table></div></td></tr><tr><td style="font-weight:bold;vertical-align:top">google_analytics_id</td><td valign="top">:</td><td><div>None</div></td></tr><tr><td style="font-weight:bold;vertical-align:top">headers</td><td valign="top">:</td><td><div><table><tr><td style="font-weight:bold;vertical-align:top">Cache-Control</td><td valign="top">:</td><td><div>no-store, no-cache, must-revalidate, post-check=0, pre-check=0</div></td></tr><tr><td style="font-weight:bold;vertical-align:top">Content-Type</td><td valign="top">:</td><td><div>text/html; charset=utf-8</div></td></tr><tr><td style="font-weight:bold;vertical-align:top">Expires</td><td valign="top">:</td><td><div>Sun, 26 May 2013 15:47:58 GMT</div></td></tr><tr><td style="font-weight:bold;vertical-align:top">Pragma</td><td valign="top">:</td><td><div>no-cache</div></td></tr><tr><td style="font-weight:bold;vertical-align:top">X-Powered-By</td><td valign="top">:</td><td><div>web2py</div></td></tr></table></div></td></tr><tr><td style="font-weight:bold;vertical-align:top">logo</td><td valign="top">:</td><td><div><a class="brand" href="http://www.web2py.com/"><b>web<span>2</span>py</b>&trade;&nbsp;</a></div></td></tr><tr><td style="font-weight:bold;vertical-align:top">menu</td><td valign="top">:</td><td><div><table><tr><td><div><table><tr><td><div>design</div></td></tr><tr><td><div>False</div></td></tr><tr><td><div>/admin/design/Music</div></td></tr></table></div></td></tr><tr><td><div><table><tr><td><div>db</div></td></tr><tr><td><div>False</div></td></tr><tr><td><div>/appadmin</div></td></tr></table></div></td></tr><tr><td><div><table><tr><td><div>state</div></td></tr><tr><td><div>False</div></td></tr><tr><td><div>/appadmin/state</div></td></tr></table></div></td></tr><tr><td><div><table><tr><td><div>cache</div></td></tr><tr><td><div>False</div></td></tr><tr><td><div>/appadmin/ccache</div></td></tr></table></div></td></tr></table></div></td></tr><tr><td style="font-weight:bold;vertical-align:top">meta</td><td valign="top">:</td><td><div><table><tr><td style="font-weight:bold;vertical-align:top">author</td><td valign="top">:</td><td><div>Matthew Bentley &lt;matthew.t.bentley@gmail.com</div></td></tr><tr><td style="font-weight:bold;vertical-align:top">description</td><td valign="top">:</td><td><div>a cool music app</div></td></tr><tr><td style="font-weight:bold;vertical-align:top">generator</td><td valign="top">:</td><td><div>Web2py Web Framework</div></td></tr><tr><td style="font-weight:bold;vertical-align:top">keywords</td><td valign="top">:</td><td><div>web2py, python, framework</div></td></tr></table></div></td></tr><tr><td style="font-weight:bold;vertical-align:top">models_to_run</td><td valign="top">:</td><td><div><table><tr><td><div>^\\w+\\.py$</div></td></tr><tr><td><div>^appadmin/\\w+\\.py$</div></td></tr><tr><td><div>^appadmin/select/\\w+\\.py$</div></td></tr></table></div></td></tr><tr><td style="font-weight:bold;vertical-align:top">postprocessing</td><td valign="top">:</td><td><div><table></table></div></td></tr><tr><td style="font-weight:bold;vertical-align:top">session_cookie_expires</td><td valign="top">:</td><td><div>None</div></td></tr><tr><td style="font-weight:bold;vertical-align:top">session_data_name</td><td valign="top">:</td><td><div>session_data_music</div></td></tr><tr><td style="font-weight:bold;vertical-align:top">session_file</td><td valign="top">:</td><td><div>None</div></td></tr><tr><td style="font-weight:bold;vertical-align:top">session_filename</td><td valign="top">:</td><td><div>/home/matthew/devel/music/applications/Music/sessions/127.0.0.1-1e5387f7-7ea7-47e0-ba01-a964badfe120</div></td></tr><tr><td style="font-weight:bold;vertical-align:top">session_id</td><td valign="top">:</td><td><div>127.0.0.1-1e5387f7-7ea7-47e0-ba01-a964badfe120</div></td></tr><tr><td style="font-weight:bold;vertical-align:top">session_id_name</td><td valign="top">:</td><td><div>session_id_music</div></td></tr><tr><td style="font-weight:bold;vertical-align:top">session_new</td><td valign="top">:</td><td><div>False</div></td></tr><tr><td style="font-weight:bold;vertical-align:top">session_storage_type</td><td valign="top">:</td><td><div>file</div></td></tr><tr><td style="font-weight:bold;vertical-align:top">status</td><td valign="top">:</td><td><div>200</div></td></tr><tr><td style="font-weight:bold;vertical-align:top">subtitle</td><td valign="top">:</td><td><div>Database Administration (appadmin)</div></td></tr><tr><td style="font-weight:bold;vertical-align:top">title</td><td valign="top">:</td><td><div>Music</div></td></tr><tr><td style="font-weight:bold;vertical-align:top">view</td><td valign="top">:</td><td><div>appadmin.html</div></td></tr></table></div>'
tRp147
sS'locals'
p148
(dp149
S'self'
p150
S"<Storage {'last_orderby': None, 'last_query': 'd... {'version': '26.0.1410.43', 'name': 'Chrome'}}}>"
p151
sg60
S"<Storage {'function': 'select', 'body': <cString...applications/Music/', 'post_vars': <Storage {}>}>"
p152
sg146
S"<Storage {'body': <cStringIO.StringO object at 0...da> at 0x7fe8783cb9b0>, 'view': 'appadmin.html'}>"
p153
sS'session_folder'
p154
S"'/home/matthew/devel/music/applications/Music/sessions'"
p155
sssS'traceback'
p156
S'Traceback (most recent call last):\n  File "/home/matthew/devel/music/gluon/main.py", line 606, in wsgibase\n    session._try_store_in_cookie_or_file(request, response)\n  File "/home/matthew/devel/music/gluon/globals.py", line 757, in _try_store_in_cookie_or_file\n    self._try_store_in_file(request, response)\n  File "/home/matthew/devel/music/gluon/globals.py", line 770, in _try_store_in_file\n    response.session_file = open(response.session_filename, \'wb\')\nIOError: [Errno 13] Permission denied: \'/home/matthew/devel/music/applications/Music/sessions/127.0.0.1-1e5387f7-7ea7-47e0-ba01-a964badfe120\'\n'
p157
s.